target datalayout = "e-m:e-p270:32:32-p271:32:32-p272:64:64-i64:64-i128:128-f80:128-n8:16:32:64-S128"
target triple = "x86_64-pc-linux-gnu"

%struct.mbedtls_ccm_context = type { [16 x i8], [16 x i8], i64, i64, i64, i64, i32, i32, %struct.mbedtls_cipher_context_t, i32 }
%struct.mbedtls_cipher_context_t = type { ptr, i32, i32, ptr, ptr, [16 x i8], i64, [16 x i8], i64, ptr, ptr }

; Function Attrs: alwaysinline nounwind uwtable
define internal void @mbedtls_put_unaligned_uint64(ptr noundef %0, i64 noundef %1) #6 {
  %3 = alloca ptr, align 8
  %4 = alloca i64, align 8
  store ptr %0, ptr %3, align 8, !tbaa !38
  store i64 %1, ptr %4, align 8, !tbaa !14
  %5 = load ptr, ptr %3, align 8, !tbaa !38
  call void @llvm.memcpy.p0.p0.i64(ptr align 1 %5, ptr align 8 %4, i64 8, i1 false)
  ret void
}

; Function Attrs: alwaysinline nounwind uwtable
define internal i64 @mbedtls_get_unaligned_uint64(ptr noundef %0) #6 {
  %2 = alloca ptr, align 8
  %3 = alloca i64, align 8
  store ptr %0, ptr %2, align 8, !tbaa !38
  call void @llvm.lifetime.start.p0(i64 8, ptr %3) #8
  %4 = load ptr, ptr %2, align 8, !tbaa !38
  call void @llvm.memcpy.p0.p0.i64(ptr align 8 %3, ptr align 1 %4, i64 8, i1 false)
  %5 = load i64, ptr %3, align 8, !tbaa !14
  call void @llvm.lifetime.end.p0(i64 8, ptr %3) #8
  ret i64 %5
}

; Function Attrs: alwaysinline nounwind uwtable
define internal void @mbedtls_xor(ptr noundef %0, ptr noundef %1, ptr noundef %2, i64 noundef %3) #6 {
  %5 = alloca ptr, align 8
  %6 = alloca ptr, align 8
  %7 = alloca ptr, align 8
  %8 = alloca i64, align 8
  %9 = alloca i64, align 8
  %10 = alloca i64, align 8
  store ptr %0, ptr %5, align 8, !tbaa !10
  store ptr %1, ptr %6, align 8, !tbaa !10
  store ptr %2, ptr %7, align 8, !tbaa !10
  store i64 %3, ptr %8, align 8, !tbaa !14
  call void @llvm.lifetime.start.p0(i64 8, ptr %9) #8
  store i64 0, ptr %9, align 8, !tbaa !14
  br label %11

11:                                               ; preds = %30, %4
  %12 = load i64, ptr %9, align 8, !tbaa !14
  %13 = add i64 %12, 8
  %14 = load i64, ptr %8, align 8, !tbaa !14
  %15 = icmp ule i64 %13, %14
  br i1 %15, label %16, label %33

16:                                               ; preds = %11
  call void @llvm.lifetime.start.p0(i64 8, ptr %10) #8
  %17 = load ptr, ptr %6, align 8, !tbaa !10
  %18 = load i64, ptr %9, align 8, !tbaa !14
  %19 = getelementptr inbounds nuw i8, ptr %17, i64 %18
  %20 = call i64 @mbedtls_get_unaligned_uint64(ptr noundef %19)
  %21 = load ptr, ptr %7, align 8, !tbaa !10
  %22 = load i64, ptr %9, align 8, !tbaa !14
  %23 = getelementptr inbounds nuw i8, ptr %21, i64 %22
  %24 = call i64 @mbedtls_get_unaligned_uint64(ptr noundef %23)
  %25 = xor i64 %20, %24
  store i64 %25, ptr %10, align 8, !tbaa !14
  %26 = load ptr, ptr %5, align 8, !tbaa !10
  %27 = load i64, ptr %9, align 8, !tbaa !14
  %28 = getelementptr inbounds nuw i8, ptr %26, i64 %27
  %29 = load i64, ptr %10, align 8, !tbaa !14
  call void @mbedtls_put_unaligned_uint64(ptr noundef %28, i64 noundef %29)
  call void @llvm.lifetime.end.p0(i64 8, ptr %10) #8
  br label %30

30:                                               ; preds = %16
  %31 = load i64, ptr %9, align 8, !tbaa !14
  %32 = add i64 %31, 8
  store i64 %32, ptr %9, align 8, !tbaa !14
  br label %11, !llvm.loop !30

33:                                               ; preds = %11
  br label %34

34:                                               ; preds = %54, %33
  %35 = load i64, ptr %9, align 8, !tbaa !14
  %36 = load i64, ptr %8, align 8, !tbaa !14
  %37 = icmp ult i64 %35, %36
  br i1 %37, label %38, label %57

38:                                               ; preds = %34
  %39 = load ptr, ptr %6, align 8, !tbaa !10
  %40 = load i64, ptr %9, align 8, !tbaa !14
  %41 = getelementptr inbounds nuw i8, ptr %39, i64 %40
  %42 = load i8, ptr %41, align 1, !tbaa !21
  %43 = zext i8 %42 to i32
  %44 = load ptr, ptr %7, align 8, !tbaa !10
  %45 = load i64, ptr %9, align 8, !tbaa !14
  %46 = getelementptr inbounds nuw i8, ptr %44, i64 %45
  %47 = load i8, ptr %46, align 1, !tbaa !21
  %48 = zext i8 %47 to i32
  %49 = xor i32 %43, %48
  %50 = trunc i32 %49 to i8
  %51 = load ptr, ptr %5, align 8, !tbaa !10
  %52 = load i64, ptr %9, align 8, !tbaa !14
  %53 = getelementptr inbounds nuw i8, ptr %51, i64 %52
  store i8 %50, ptr %53, align 1, !tbaa !21
  br label %54

54:                                               ; preds = %38
  %55 = load i64, ptr %9, align 8, !tbaa !14
  %56 = add i64 %55, 1
  store i64 %56, ptr %9, align 8, !tbaa !14
  br label %34, !llvm.loop !31

57:                                               ; preds = %34
  call void @llvm.lifetime.end.p0(i64 8, ptr %9) #8
  ret void
}

; Function Attrs: nounwind uwtable
define internal void @mbedtls_ccm_clear_state(ptr noundef %0) #0 {
  %2 = alloca ptr, align 8
  store ptr %0, ptr %2, align 8, !tbaa !3
  %3 = load ptr, ptr %2, align 8, !tbaa !3
  %4 = getelementptr inbounds nuw %struct.mbedtls_ccm_context, ptr %3, i32 0, i32 9
  store i32 0, ptr %4, align 8, !tbaa !22
  %5 = load ptr, ptr %2, align 8, !tbaa !3
  %6 = getelementptr inbounds nuw %struct.mbedtls_ccm_context, ptr %5, i32 0, i32 0
  %7 = getelementptr inbounds [16 x i8], ptr %6, i64 0, i64 0
  call void @llvm.memset.p0.i64(ptr align 8 %7, i8 0, i64 16, i1 false)
  %8 = load ptr, ptr %2, align 8, !tbaa !3
  %9 = getelementptr inbounds nuw %struct.mbedtls_ccm_context, ptr %8, i32 0, i32 1
  %10 = getelementptr inbounds [16 x i8], ptr %9, i64 0, i64 0
  call void @llvm.memset.p0.i64(ptr align 8 %10, i8 0, i64 16, i1 false)
  ret void
}

; Function Attrs: nounwind uwtable
define internal i32 @mbedtls_ccm_crypt(ptr noundef %0, i64 noundef %1, i64 noundef %2, ptr noundef %3, ptr noundef %4) #0 {
  %6 = alloca i32, align 4
  %7 = alloca ptr, align 8
  %8 = alloca i64, align 8
  %9 = alloca i64, align 8
  %10 = alloca ptr, align 8
  %11 = alloca ptr, align 8
  %12 = alloca i32, align 4
  %13 = alloca [16 x i8], align 16
  %14 = alloca i64, align 8
  %15 = alloca i32, align 4
  store ptr %0, ptr %7, align 8, !tbaa !3
  store i64 %1, ptr %8, align 8, !tbaa !14
  store i64 %2, ptr %9, align 8, !tbaa !14
  store ptr %3, ptr %10, align 8, !tbaa !10
  store ptr %4, ptr %11, align 8, !tbaa !10
  call void @llvm.lifetime.start.p0(i64 4, ptr %12) #8
  store i32 -110, ptr %12, align 4, !tbaa !8
  call void @llvm.lifetime.start.p0(i64 16, ptr %13) #8
  call void @llvm.memset.p0.i64(ptr align 16 %13, i8 0, i64 16, i1 false)
  call void @llvm.lifetime.start.p0(i64 8, ptr %14) #8
  store i64 0, ptr %14, align 8, !tbaa !14
  %16 = load ptr, ptr %7, align 8, !tbaa !3
  %17 = getelementptr inbounds nuw %struct.mbedtls_ccm_context, ptr %16, i32 0, i32 8
  %18 = load ptr, ptr %7, align 8, !tbaa !3
  %19 = getelementptr inbounds nuw %struct.mbedtls_ccm_context, ptr %18, i32 0, i32 1
  %20 = getelementptr inbounds [16 x i8], ptr %19, i64 0, i64 0
  %21 = getelementptr inbounds [16 x i8], ptr %13, i64 0, i64 0
  %22 = call i32 @mbedtls_cipher_update(ptr noundef %17, ptr noundef %20, i64 noundef 16, ptr noundef %21, ptr noundef %14)
  store i32 %22, ptr %12, align 4, !tbaa !8
  %23 = load i32, ptr %12, align 4, !tbaa !8
  %24 = icmp ne i32 %23, 0
  br i1 %24, label %25, label %32

25:                                               ; preds = %5
  %26 = load ptr, ptr %7, align 8, !tbaa !3
  %27 = getelementptr inbounds nuw %struct.mbedtls_ccm_context, ptr %26, i32 0, i32 9
  %28 = load i32, ptr %27, align 8, !tbaa !22
  %29 = or i32 %28, 16
  store i32 %29, ptr %27, align 8, !tbaa !22
  %30 = getelementptr inbounds [16 x i8], ptr %13, i64 0, i64 0
  call void @mbedtls_platform_zeroize(ptr noundef %30, i64 noundef 16)
  %31 = load i32, ptr %12, align 4, !tbaa !8
  store i32 %31, ptr %6, align 4
  store i32 1, ptr %15, align 4
  br label %41

32:                                               ; preds = %5
  %33 = load ptr, ptr %11, align 8, !tbaa !10
  %34 = load ptr, ptr %10, align 8, !tbaa !10
  %35 = getelementptr inbounds [16 x i8], ptr %13, i64 0, i64 0
  %36 = load i64, ptr %8, align 8, !tbaa !14
  %37 = getelementptr inbounds nuw i8, ptr %35, i64 %36
  %38 = load i64, ptr %9, align 8, !tbaa !14
  call void @mbedtls_xor(ptr noundef %33, ptr noundef %34, ptr noundef %37, i64 noundef %38)
  %39 = getelementptr inbounds [16 x i8], ptr %13, i64 0, i64 0
  call void @mbedtls_platform_zeroize(ptr noundef %39, i64 noundef 16)
  %40 = load i32, ptr %12, align 4, !tbaa !8
  store i32 %40, ptr %6, align 4
  store i32 1, ptr %15, align 4
  br label %41

41:                                               ; preds = %32, %25
  call void @llvm.lifetime.end.p0(i64 8, ptr %14) #8
  call void @llvm.lifetime.end.p0(i64 16, ptr %13) #8
  call void @llvm.lifetime.end.p0(i64 4, ptr %12) #8
  %42 = load i32, ptr %6, align 4
  ret i32 %42
}

; Function Attrs: nounwind uwtable
define hidden i32 @mbedtls_ccm_finish(ptr noundef %0, ptr noundef %1, i64 noundef %2) #0 {
  %4 = alloca i32, align 4
  %5 = alloca ptr, align 8
  %6 = alloca ptr, align 8
  %7 = alloca i64, align 8
  %8 = alloca i32, align 4
  %9 = alloca i8, align 1
  %10 = alloca i32, align 4
  store ptr %0, ptr %5, align 8, !tbaa !3
  store ptr %1, ptr %6, align 8, !tbaa !10
  store i64 %2, ptr %7, align 8, !tbaa !14
  call void @llvm.lifetime.start.p0(i64 4, ptr %8) #8
  store i32 -110, ptr %8, align 4, !tbaa !8
  call void @llvm.lifetime.start.p0(i64 1, ptr %9) #8
  %11 = load ptr, ptr %5, align 8, !tbaa !3
  %12 = getelementptr inbounds nuw %struct.mbedtls_ccm_context, ptr %11, i32 0, i32 9
  %13 = load i32, ptr %12, align 8, !tbaa !22
  %14 = and i32 %13, 16
  %15 = icmp ne i32 %14, 0
  br i1 %15, label %16, label %17

16:                                               ; preds = %3
  store i32 -110, ptr %4, align 4
  store i32 1, ptr %10, align 4
  br label %86

17:                                               ; preds = %3
  %18 = load ptr, ptr %5, align 8, !tbaa !3
  %19 = getelementptr inbounds nuw %struct.mbedtls_ccm_context, ptr %18, i32 0, i32 3
  %20 = load i64, ptr %19, align 8, !tbaa !25
  %21 = icmp ugt i64 %20, 0
  br i1 %21, label %22, label %29

22:                                               ; preds = %17
  %23 = load ptr, ptr %5, align 8, !tbaa !3
  %24 = getelementptr inbounds nuw %struct.mbedtls_ccm_context, ptr %23, i32 0, i32 9
  %25 = load i32, ptr %24, align 8, !tbaa !22
  %26 = and i32 %25, 8
  %27 = icmp ne i32 %26, 0
  br i1 %27, label %29, label %28

28:                                               ; preds = %22
  store i32 -13, ptr %4, align 4
  store i32 1, ptr %10, align 4
  br label %86

29:                                               ; preds = %22, %17
  %30 = load ptr, ptr %5, align 8, !tbaa !3
  %31 = getelementptr inbounds nuw %struct.mbedtls_ccm_context, ptr %30, i32 0, i32 2
  %32 = load i64, ptr %31, align 8, !tbaa !24
  %33 = icmp ugt i64 %32, 0
  br i1 %33, label %34, label %43

34:                                               ; preds = %29
  %35 = load ptr, ptr %5, align 8, !tbaa !3
  %36 = getelementptr inbounds nuw %struct.mbedtls_ccm_context, ptr %35, i32 0, i32 5
  %37 = load i64, ptr %36, align 8, !tbaa !28
  %38 = load ptr, ptr %5, align 8, !tbaa !3
  %39 = getelementptr inbounds nuw %struct.mbedtls_ccm_context, ptr %38, i32 0, i32 2
  %40 = load i64, ptr %39, align 8, !tbaa !24
  %41 = icmp ne i64 %37, %40
  br i1 %41, label %42, label %43

42:                                               ; preds = %34
  store i32 -13, ptr %4, align 4
  store i32 1, ptr %10, align 4
  br label %86

43:                                               ; preds = %34, %29
  store i8 0, ptr %9, align 1, !tbaa !21
  br label %44

44:                                               ; preds = %59, %43
  %45 = load i8, ptr %9, align 1, !tbaa !21
  %46 = zext i8 %45 to i32
  %47 = load ptr, ptr %5, align 8, !tbaa !3
  %48 = getelementptr inbounds nuw %struct.mbedtls_ccm_context, ptr %47, i32 0, i32 6
  %49 = load i32, ptr %48, align 8, !tbaa !20
  %50 = icmp ult i32 %46, %49
  br i1 %50, label %51, label %62

51:                                               ; preds = %44
  %52 = load ptr, ptr %5, align 8, !tbaa !3
  %53 = getelementptr inbounds nuw %struct.mbedtls_ccm_context, ptr %52, i32 0, i32 1
  %54 = load i8, ptr %9, align 1, !tbaa !21
  %55 = zext i8 %54 to i32
  %56 = sub nsw i32 15, %55
  %57 = sext i32 %56 to i64
  %58 = getelementptr inbounds [16 x i8], ptr %53, i64 0, i64 %57
  store i8 0, ptr %58, align 1, !tbaa !21
  br label %59

59:                                               ; preds = %51
  %60 = load i8, ptr %9, align 1, !tbaa !21
  %61 = add i8 %60, 1
  store i8 %61, ptr %9, align 1, !tbaa !21
  br label %44, !llvm.loop !36

62:                                               ; preds = %44
  %63 = load ptr, ptr %5, align 8, !tbaa !3
  %64 = load ptr, ptr %5, align 8, !tbaa !3
  %65 = getelementptr inbounds nuw %struct.mbedtls_ccm_context, ptr %64, i32 0, i32 0
  %66 = getelementptr inbounds [16 x i8], ptr %65, i64 0, i64 0
  %67 = load ptr, ptr %5, align 8, !tbaa !3
  %68 = getelementptr inbounds nuw %struct.mbedtls_ccm_context, ptr %67, i32 0, i32 0
  %69 = getelementptr inbounds [16 x i8], ptr %68, i64 0, i64 0
  %70 = call i32 @mbedtls_ccm_crypt(ptr noundef %63, i64 noundef 0, i64 noundef 16, ptr noundef %66, ptr noundef %69)
  store i32 %70, ptr %8, align 4, !tbaa !8
  %71 = load i32, ptr %8, align 4, !tbaa !8
  %72 = icmp ne i32 %71, 0
  br i1 %72, label %73, label %75

73:                                               ; preds = %62
  %74 = load i32, ptr %8, align 4, !tbaa !8
  store i32 %74, ptr %4, align 4
  store i32 1, ptr %10, align 4
  br label %86

75:                                               ; preds = %62
  %76 = load ptr, ptr %6, align 8, !tbaa !10
  %77 = icmp ne ptr %76, null
  br i1 %77, label %78, label %84

78:                                               ; preds = %75
  %79 = load ptr, ptr %6, align 8, !tbaa !10
  %80 = load ptr, ptr %5, align 8, !tbaa !3
  %81 = getelementptr inbounds nuw %struct.mbedtls_ccm_context, ptr %80, i32 0, i32 0
  %82 = getelementptr inbounds [16 x i8], ptr %81, i64 0, i64 0
  %83 = load i64, ptr %7, align 8, !tbaa !14
  call void @llvm.memcpy.p0.p0.i64(ptr align 1 %79, ptr align 8 %82, i64 %83, i1 false)
  br label %84

84:                                               ; preds = %78, %75
  %85 = load ptr, ptr %5, align 8, !tbaa !3
  call void @mbedtls_ccm_clear_state(ptr noundef %85)
  store i32 0, ptr %4, align 4
  store i32 1, ptr %10, align 4
  br label %86

86:                                               ; preds = %84, %73, %42, %28, %16
  call void @llvm.lifetime.end.p0(i64 1, ptr %9) #8
  call void @llvm.lifetime.end.p0(i64 4, ptr %8) #8
  %87 = load i32, ptr %4, align 4
  ret i32 %87
}