; Function Attrs: nounwind uwtable
define hidden i32 @mbedtls_ccm_finish(ptr noundef %0, ptr noundef writeonly %1, i64 noundef %2) local_unnamed_addr #2 {
  %4 = alloca [16 x i8], align 16
  %5 = alloca i64, align 8
  %6 = getelementptr inbounds nuw i8, ptr %0, i64 168
  %7 = load i32, ptr %6, align 8, !tbaa !15
  %8 = and i32 %7, 16
  %.not = icmp eq i32 %8, 0
  %.0.i12.i.sroa.gep = getelementptr inbounds nuw i8, ptr %4, i64 8
  br i1 %.not, label %9, label %42

9:                                                ; preds = %3
  %10 = getelementptr inbounds nuw i8, ptr %0, i64 40
  %11 = load i64, ptr %10, align 8, !tbaa !18
  %.not26 = icmp ne i64 %11, 0
  %12 = and i32 %7, 8
  %.not27 = icmp eq i32 %12, 0
  %or.cond = and i1 %.not27, %.not26
  br i1 %or.cond, label %42, label %13

13:                                               ; preds = %9
  %14 = getelementptr inbounds nuw i8, ptr %0, i64 32
  %15 = load i64, ptr %14, align 8, !tbaa !17
  %.not28 = icmp eq i64 %15, 0
  br i1 %.not28, label %19, label %16

16:                                               ; preds = %13
  %17 = getelementptr inbounds nuw i8, ptr %0, i64 56
  %18 = load i64, ptr %17, align 8, !tbaa !21
  %.not29 = icmp eq i64 %18, %15
  br i1 %.not29, label %19, label %42

19:                                               ; preds = %16, %13
  %20 = getelementptr inbounds nuw i8, ptr %0, i64 64
  %21 = load i32, ptr %20, align 8, !tbaa !13
  %.not33 = icmp eq i32 %21, 0
  br i1 %.not33, label %._crit_edge, label %.lr.ph

.lr.ph:                                           ; preds = %19
  %22 = getelementptr inbounds nuw i8, ptr %0, i64 16
  br label %23

23:                                               ; preds = %.lr.ph, %23
  %24 = phi i32 [ 0, %.lr.ph ], [ %29, %23 ]
  %.032 = phi i8 [ 0, %.lr.ph ], [ %28, %23 ]
  %25 = sub nsw i32 15, %24
  %26 = sext i32 %25 to i64
  %27 = getelementptr inbounds [16 x i8], ptr %22, i64 0, i64 %26
  store i8 0, ptr %27, align 1, !tbaa !14
  %28 = add i8 %.032, 1
  %29 = zext i8 %28 to i32
  %30 = load i32, ptr %20, align 8, !tbaa !13
  %31 = icmp ugt i32 %30, %29
  br i1 %31, label %23, label %._crit_edge, !llvm.loop !28

._crit_edge:                                      ; preds = %23, %19
  call void @llvm.lifetime.start.p0(i64 16, ptr nonnull %4) #10
  call void @llvm.memset.p0.i64(ptr noundef nonnull align 16 dereferenceable(16) %4, i8 0, i64 16, i1 false)
  call void @llvm.lifetime.start.p0(i64 8, ptr nonnull %5) #10
  store i64 0, ptr %5, align 8, !tbaa !25
  %32 = getelementptr inbounds nuw i8, ptr %0, i64 72
  %33 = getelementptr inbounds nuw i8, ptr %0, i64 16
  %34 = call i32 @mbedtls_cipher_update(ptr noundef nonnull %32, ptr noundef nonnull %33, i64 noundef 16, ptr noundef nonnull %4, ptr noundef nonnull %5) #10
  %.not.i = icmp eq i32 %34, 0
  br i1 %.not.i, label %.lr.ph.i, label %mbedtls_ccm_crypt.exit

.lr.ph.i:                                         ; preds = %._crit_edge
  %.0.copyload.i10.i = load i64, ptr %0, align 1
  %.0.copyload.i.i = load i64, ptr %4, align 16
  %35 = xor i64 %.0.copyload.i.i, %.0.copyload.i10.i
  store i64 %35, ptr %0, align 1
  %36 = getelementptr inbounds nuw i8, ptr %0, i64 8
  %.0.copyload.i10.i.c = load i64, ptr %36, align 1
  %.0.copyload.i.i.c = load i64, ptr %.0.i12.i.sroa.gep, align 8
  %37 = xor i64 %.0.copyload.i.i.c, %.0.copyload.i10.i.c
  store i64 %37, ptr %36, align 1
  call void @mbedtls_platform_zeroize(ptr noundef nonnull %4, i64 noundef 16) #10
  call void @llvm.lifetime.end.p0(i64 8, ptr nonnull %5) #10
  call void @llvm.lifetime.end.p0(i64 16, ptr nonnull %4) #10
  %.not31 = icmp eq ptr %1, null
  br i1 %.not31, label %41, label %40

mbedtls_ccm_crypt.exit:                           ; preds = %._crit_edge
  %38 = load i32, ptr %6, align 8, !tbaa !15
  %39 = or i32 %38, 16
  store i32 %39, ptr %6, align 8, !tbaa !15
  call void @mbedtls_platform_zeroize(ptr noundef nonnull %4, i64 noundef 16) #10
  call void @llvm.lifetime.end.p0(i64 8, ptr nonnull %5) #10
  call void @llvm.lifetime.end.p0(i64 16, ptr nonnull %4) #10
  br label %42

40:                                               ; preds = %.lr.ph.i
  call void @llvm.memcpy.p0.p0.i64(ptr nonnull align 1 %1, ptr nonnull align 8 %0, i64 %2, i1 false)
  br label %41

41:                                               ; preds = %40, %.lr.ph.i
  store i32 0, ptr %6, align 8, !tbaa !15
  call void @llvm.memset.p0.i64(ptr noundef nonnull align 8 dereferenceable(32) %0, i8 0, i64 32, i1 false)
  br label %42

42:                                               ; preds = %mbedtls_ccm_crypt.exit, %16, %9, %3, %41
  %.021 = phi i32 [ 0, %41 ], [ -110, %3 ], [ -13, %9 ], [ -13, %16 ], [ %34, %mbedtls_ccm_crypt.exit ]
  ret i32 %.021
}